; Function Attrs: mustprogress uwtable
define void @_ZN4YAML7Emitter19BlockMapPrepareNodeENS_15EmitterNodeType5valueE(ptr noundef nonnull align 8 dereferenceable(72) %0, i32 noundef %1) local_unnamed_addr #0 align 2 {
  %3 = load ptr, ptr %0, align 8, !tbaa !3
  %4 = tail call noundef i64 @_ZNK4YAML12EmitterState18CurGroupChildCountEv(ptr noundef nonnull align 8 dereferenceable(224) %3)
  %5 = and i64 %4, 1
  %6 = icmp eq i64 %5, 0
  %7 = load ptr, ptr %0, align 8, !tbaa !3
  br i1 %6, label %8, label %21

8:                                                ; preds = %2
  %9 = getelementptr inbounds nuw i8, ptr %7, i64 104
  %10 = load i32, ptr %9, align 4, !tbaa !65
  %11 = icmp eq i32 %10, 34
  br i1 %11, label %12, label %13

12:                                               ; preds = %8
  tail call void @_ZN4YAML12EmitterState10SetLongKeyEv(ptr noundef nonnull align 8 dereferenceable(224) %7)
  br label %13

13:                                               ; preds = %12, %8
  switch i32 %1, label %16 [
    i32 6, label %14
    i32 4, label %14
    i32 1, label %14
  ]

14:                                               ; preds = %13, %13, %13
  %15 = load ptr, ptr %0, align 8, !tbaa !3
  tail call void @_ZN4YAML12EmitterState10SetLongKeyEv(ptr noundef nonnull align 8 dereferenceable(224) %15)
  br label %16

16:                                               ; preds = %13, %14
  %17 = load ptr, ptr %0, align 8, !tbaa !3
  %18 = tail call noundef zeroext i1 @_ZNK4YAML12EmitterState15CurGroupLongKeyEv(ptr noundef nonnull align 8 dereferenceable(224) %17)
  br i1 %18, label %19, label %20

19:                                               ; preds = %16
  tail call void @_ZN4YAML7Emitter22BlockMapPrepareLongKeyENS_15EmitterNodeType5valueE(ptr noundef nonnull align 8 dereferenceable(72) %0, i32 noundef %1)
  br label %25

20:                                               ; preds = %16
  tail call void @_ZN4YAML7Emitter24BlockMapPrepareSimpleKeyENS_15EmitterNodeType5valueE(ptr noundef nonnull align 8 dereferenceable(72) %0, i32 noundef %1)
  br label %25

21:                                               ; preds = %2
  %22 = tail call noundef zeroext i1 @_ZNK4YAML12EmitterState15CurGroupLongKeyEv(ptr noundef nonnull align 8 dereferenceable(224) %7)
  br i1 %22, label %23, label %24

23:                                               ; preds = %21
  tail call void @_ZN4YAML7Emitter27BlockMapPrepareLongKeyValueENS_15EmitterNodeType5valueE(ptr noundef nonnull align 8 dereferenceable(72) %0, i32 noundef %1)
  br label %25

24:                                               ; preds = %21
  tail call void @_ZN4YAML7Emitter29BlockMapPrepareSimpleKeyValueENS_15EmitterNodeType5valueE(ptr noundef nonnull align 8 dereferenceable(72) %0, i32 noundef %1)
  br label %25

25:                                               ; preds = %23, %24, %19, %20
  ret void
}